target datalayout = "e-m:e-p270:32:32-p271:32:32-p272:64:64-i64:64-i128:128-f80:128-n8:16:32:64-S128"
target triple = "x86_64-pc-linux-gnu"

%struct._foreach_part_split_hostlist_t = type { ptr, i32, ptr, i32, ptr, ptr, i16 }
%struct.part_record = type { i32, ptr, ptr, ptr, ptr, ptr, ptr, i32, ptr, ptr, ptr, ptr, ptr, i32, i64, i32, ptr, ptr, ptr, ptr, ptr, i32, i32, ptr, i32, i32, i64, i32, i32, i16, i32, i32, i32, i32, ptr, ptr, ptr, ptr, ptr, double, i16, i16, i16, i16, ptr, ptr, i16, i16, i32, i16, i32, i32, i32, i32, i16, ptr, ptr, ptr }

@.str.5 = private unnamed_addr constant [14 x i8] c"common_topo.c\00", align 1
@__func__._part_split_hostlist = private unnamed_addr constant [21 x i8] c"_part_split_hostlist\00", align 1

; Function Attrs: nounwind uwtable
define internal i32 @_part_split_hostlist(ptr noundef %0, ptr noundef %1) #0 {
  %3 = alloca i32, align 4
  %4 = alloca ptr, align 8
  %5 = alloca ptr, align 8
  %6 = alloca ptr, align 8
  %7 = alloca ptr, align 8
  %8 = alloca i32, align 4
  %9 = alloca i32, align 4
  %10 = alloca i32, align 4
  %11 = alloca ptr, align 8
  %12 = alloca ptr, align 8
  %13 = alloca i64, align 8
  %14 = alloca i32, align 4
  %15 = alloca i32, align 4
  store ptr %0, ptr %4, align 8
  store ptr %1, ptr %5, align 8
  call void @llvm.lifetime.start.p0(i64 8, ptr %6) #7
  %16 = load ptr, ptr %4, align 8
  store ptr %16, ptr %6, align 8
  call void @llvm.lifetime.start.p0(i64 8, ptr %7) #7
  %17 = load ptr, ptr %5, align 8
  store ptr %17, ptr %7, align 8
  call void @llvm.lifetime.start.p0(i64 4, ptr %8) #7
  call void @llvm.lifetime.start.p0(i64 4, ptr %9) #7
  call void @llvm.lifetime.start.p0(i64 4, ptr %10) #7
  call void @llvm.lifetime.start.p0(i64 8, ptr %11) #7
  call void @llvm.lifetime.start.p0(i64 8, ptr %12) #7
  call void @llvm.lifetime.start.p0(i64 8, ptr %13) #7
  %18 = load ptr, ptr %6, align 8
  %19 = getelementptr inbounds nuw %struct.part_record, ptr %18, i32 0, i32 35
  %20 = load ptr, ptr %19, align 8
  %21 = load ptr, ptr %7, align 8
  %22 = getelementptr inbounds nuw %struct._foreach_part_split_hostlist_t, ptr %21, i32 0, i32 4
  %23 = load ptr, ptr %22, align 8
  %24 = call i32 @slurm_bit_overlap_any(ptr noundef %20, ptr noundef %23)
  %25 = icmp ne i32 %24, 0
  br i1 %25, label %27, label %26

26:                                               ; preds = %2
  store i32 0, ptr %3, align 4
  store i32 1, ptr %14, align 4
  br label %149

27:                                               ; preds = %2
  br label %28

28:                                               ; preds = %27
  %29 = load ptr, ptr %7, align 8
  %30 = getelementptr inbounds nuw %struct._foreach_part_split_hostlist_t, ptr %29, i32 0, i32 2
  %31 = load ptr, ptr %30, align 8
  %32 = icmp ne ptr %31, null
  br i1 %32, label %33, label %40

33:                                               ; preds = %28
  %34 = load ptr, ptr %7, align 8
  %35 = getelementptr inbounds nuw %struct._foreach_part_split_hostlist_t, ptr %34, i32 0, i32 2
  %36 = load ptr, ptr %35, align 8
  %37 = load ptr, ptr %6, align 8
  %38 = getelementptr inbounds nuw %struct.part_record, ptr %37, i32 0, i32 35
  %39 = load ptr, ptr %38, align 8
  call void @slurm_bit_copybits(ptr noundef %36, ptr noundef %39)
  br label %47

40:                                               ; preds = %28
  %41 = load ptr, ptr %6, align 8
  %42 = getelementptr inbounds nuw %struct.part_record, ptr %41, i32 0, i32 35
  %43 = load ptr, ptr %42, align 8
  %44 = call ptr @slurm_bit_copy(ptr noundef %43)
  %45 = load ptr, ptr %7, align 8
  %46 = getelementptr inbounds nuw %struct._foreach_part_split_hostlist_t, ptr %45, i32 0, i32 2
  store ptr %44, ptr %46, align 8
  br label %47

47:                                               ; preds = %40, %33
  br label %48

48:                                               ; preds = %47
  br label %49

49:                                               ; preds = %48
  %50 = load ptr, ptr %7, align 8
  %51 = getelementptr inbounds nuw %struct._foreach_part_split_hostlist_t, ptr %50, i32 0, i32 2
  %52 = load ptr, ptr %51, align 8
  %53 = load ptr, ptr %7, align 8
  %54 = getelementptr inbounds nuw %struct._foreach_part_split_hostlist_t, ptr %53, i32 0, i32 4
  %55 = load ptr, ptr %54, align 8
  call void @slurm_bit_and(ptr noundef %52, ptr noundef %55)
  %56 = load ptr, ptr %7, align 8
  %57 = getelementptr inbounds nuw %struct._foreach_part_split_hostlist_t, ptr %56, i32 0, i32 4
  %58 = load ptr, ptr %57, align 8
  %59 = load ptr, ptr %7, align 8
  %60 = getelementptr inbounds nuw %struct._foreach_part_split_hostlist_t, ptr %59, i32 0, i32 2
  %61 = load ptr, ptr %60, align 8
  call void @bit_and_not(ptr noundef %58, ptr noundef %61)
  %62 = load ptr, ptr %7, align 8
  %63 = getelementptr inbounds nuw %struct._foreach_part_split_hostlist_t, ptr %62, i32 0, i32 2
  %64 = load ptr, ptr %63, align 8
  %65 = call i32 @slurm_bit_set_count(ptr noundef %64)
  store i32 %65, ptr %8, align 4
  %66 = load ptr, ptr %7, align 8
  %67 = getelementptr inbounds nuw %struct._foreach_part_split_hostlist_t, ptr %66, i32 0, i32 2
  %68 = load ptr, ptr %67, align 8
  %69 = call ptr @bitmap2hostlist(ptr noundef %68)
  store ptr %69, ptr %11, align 8
  %70 = load ptr, ptr %11, align 8
  %71 = load ptr, ptr %7, align 8
  %72 = getelementptr inbounds nuw %struct._foreach_part_split_hostlist_t, ptr %71, i32 0, i32 6
  %73 = load i16, ptr %72, align 8
  %74 = call i32 @_split_hostlist_treewidth(ptr noundef %70, ptr noundef %12, ptr noundef %9, i16 noundef zeroext %73)
  store i32 %74, ptr %10, align 4
  %75 = load ptr, ptr %11, align 8
  call void @slurm_hostlist_destroy(ptr noundef %75)
  %76 = load ptr, ptr %7, align 8
  %77 = getelementptr inbounds nuw %struct._foreach_part_split_hostlist_t, ptr %76, i32 0, i32 5
  %78 = load ptr, ptr %77, align 8
  %79 = load ptr, ptr %78, align 8
  %80 = call i64 @slurm_xsize(ptr noundef %79)
  %81 = load i32, ptr %9, align 4
  %82 = sext i32 %81 to i64
  %83 = mul i64 %82, 8
  %84 = add i64 %80, %83
  store i64 %84, ptr %13, align 8
  %85 = load ptr, ptr %7, align 8
  %86 = getelementptr inbounds nuw %struct._foreach_part_split_hostlist_t, ptr %85, i32 0, i32 5
  %87 = load ptr, ptr %86, align 8
  %88 = load i64, ptr %13, align 8
  %89 = call ptr @slurm_xrecalloc(ptr noundef %87, i64 noundef 1, i64 noundef %88, i1 noundef zeroext true, i1 noundef zeroext false, ptr noundef @.str.5, i32 noundef 107, ptr noundef @__func__._part_split_hostlist)
  call void @llvm.lifetime.start.p0(i64 4, ptr %15) #7
  store i32 0, ptr %15, align 4
  br label %90

90:                                               ; preds = %113, %49
  %91 = load i32, ptr %15, align 4
  %92 = load i32, ptr %9, align 4
  %93 = icmp slt i32 %91, %92
  br i1 %93, label %95, label %94

94:                                               ; preds = %90
  store i32 4, ptr %14, align 4
  call void @llvm.lifetime.end.p0(i64 4, ptr %15) #7
  br label %116

95:                                               ; preds = %90
  %96 = load ptr, ptr %12, align 8
  %97 = load i32, ptr %15, align 4
  %98 = sext i32 %97 to i64
  %99 = getelementptr inbounds ptr, ptr %96, i64 %98
  %100 = load ptr, ptr %99, align 8
  %101 = load ptr, ptr %7, align 8
  %102 = getelementptr inbounds nuw %struct._foreach_part_split_hostlist_t, ptr %101, i32 0, i32 5
  %103 = load ptr, ptr %102, align 8
  %104 = load ptr, ptr %103, align 8
  %105 = load ptr, ptr %7, align 8
  %106 = getelementptr inbounds nuw %struct._foreach_part_split_hostlist_t, ptr %105, i32 0, i32 0
  %107 = load ptr, ptr %106, align 8
  %108 = load i32, ptr %107, align 4
  %109 = load i32, ptr %15, align 4
  %110 = add nsw i32 %108, %109
  %111 = sext i32 %110 to i64
  %112 = getelementptr inbounds ptr, ptr %104, i64 %111
  store ptr %100, ptr %112, align 8
  br label %113

113:                                              ; preds = %95
  %114 = load i32, ptr %15, align 4
  %115 = add nsw i32 %114, 1
  store i32 %115, ptr %15, align 4
  br label %90, !llvm.loop !19

116:                                              ; preds = %94
  call void @slurm_xfree(ptr noundef %12)
  %117 = load i32, ptr %9, align 4
  %118 = load ptr, ptr %7, align 8
  %119 = getelementptr inbounds nuw %struct._foreach_part_split_hostlist_t, ptr %118, i32 0, i32 0
  %120 = load ptr, ptr %119, align 8
  %121 = load i32, ptr %120, align 4
  %122 = add nsw i32 %121, %117
  store i32 %122, ptr %120, align 4
  %123 = load ptr, ptr %7, align 8
  %124 = getelementptr inbounds nuw %struct._foreach_part_split_hostlist_t, ptr %123, i32 0, i32 1
  %125 = load i32, ptr %124, align 8
  %126 = load i32, ptr %10, align 4
  %127 = icmp sgt i32 %125, %126
  br i1 %127, label %128, label %132

128:                                              ; preds = %116
  %129 = load ptr, ptr %7, align 8
  %130 = getelementptr inbounds nuw %struct._foreach_part_split_hostlist_t, ptr %129, i32 0, i32 1
  %131 = load i32, ptr %130, align 8
  br label %134

132:                                              ; preds = %116
  %133 = load i32, ptr %10, align 4
  br label %134

134:                                              ; preds = %132, %128
  %135 = phi i32 [ %131, %128 ], [ %133, %132 ]
  %136 = load ptr, ptr %7, align 8
  %137 = getelementptr inbounds nuw %struct._foreach_part_split_hostlist_t, ptr %136, i32 0, i32 1
  store i32 %135, ptr %137, align 8
  %138 = load i32, ptr %8, align 4
  %139 = load ptr, ptr %7, align 8
  %140 = getelementptr inbounds nuw %struct._foreach_part_split_hostlist_t, ptr %139, i32 0, i32 3
  %141 = load i32, ptr %140, align 8
  %142 = sub nsw i32 %141, %138
  store i32 %142, ptr %140, align 8
  %143 = load ptr, ptr %7, align 8
  %144 = getelementptr inbounds nuw %struct._foreach_part_split_hostlist_t, ptr %143, i32 0, i32 3
  %145 = load i32, ptr %144, align 8
  %146 = icmp eq i32 %145, 0
  br i1 %146, label %147, label %148

147:                                              ; preds = %134
  store i32 -1, ptr %3, align 4
  store i32 1, ptr %14, align 4
  br label %149

148:                                              ; preds = %134
  store i32 0, ptr %3, align 4
  store i32 1, ptr %14, align 4
  br label %149

149:                                              ; preds = %148, %147, %26
  call void @llvm.lifetime.end.p0(i64 8, ptr %13) #7
  call void @llvm.lifetime.end.p0(i64 8, ptr %12) #7
  call void @llvm.lifetime.end.p0(i64 8, ptr %11) #7
  call void @llvm.lifetime.end.p0(i64 4, ptr %10) #7
  call void @llvm.lifetime.end.p0(i64 4, ptr %9) #7
  call void @llvm.lifetime.end.p0(i64 4, ptr %8) #7
  call void @llvm.lifetime.end.p0(i64 8, ptr %7) #7
  call void @llvm.lifetime.end.p0(i64 8, ptr %6) #7
  %150 = load i32, ptr %3, align 4
  ret i32 %150
}