; Function Attrs: nounwind uwtable
define internal range(i32 -1, 1) i32 @_part_split_hostlist(ptr noundef readonly captures(none) %0, ptr noundef captures(none) %1) #0 {
  %3 = alloca i32, align 4
  %4 = alloca ptr, align 8
  call void @llvm.lifetime.start.p0(i64 4, ptr nonnull %3) #8
  call void @llvm.lifetime.start.p0(i64 8, ptr nonnull %4) #8
  %5 = getelementptr inbounds nuw i8, ptr %0, i64 240
  %6 = load ptr, ptr %5, align 8
  %7 = getelementptr inbounds nuw i8, ptr %1, i64 32
  %8 = load ptr, ptr %7, align 8
  %9 = tail call i32 @slurm_bit_overlap_any(ptr noundef %6, ptr noundef %8) #8
  %.not = icmp eq i32 %9, 0
  br i1 %.not, label %59, label %10

10:                                               ; preds = %2
  %11 = getelementptr inbounds nuw i8, ptr %1, i64 16
  %12 = load ptr, ptr %11, align 8
  %.not40 = icmp eq ptr %12, null
  %13 = load ptr, ptr %5, align 8
  br i1 %.not40, label %15, label %14

14:                                               ; preds = %10
  tail call void @slurm_bit_copybits(ptr noundef nonnull %12, ptr noundef %13) #8
  %.pre = load ptr, ptr %11, align 8
  br label %17

15:                                               ; preds = %10
  %16 = tail call ptr @slurm_bit_copy(ptr noundef %13) #8
  store ptr %16, ptr %11, align 8
  br label %17

17:                                               ; preds = %15, %14
  %18 = phi ptr [ %16, %15 ], [ %.pre, %14 ]
  %19 = load ptr, ptr %7, align 8
  tail call void @slurm_bit_and(ptr noundef %18, ptr noundef %19) #8
  %20 = load ptr, ptr %7, align 8
  %21 = load ptr, ptr %11, align 8
  tail call void @bit_and_not(ptr noundef %20, ptr noundef %21) #8
  %22 = load ptr, ptr %11, align 8
  %23 = tail call i32 @slurm_bit_set_count(ptr noundef %22) #8
  %24 = load ptr, ptr %11, align 8
  %25 = tail call ptr @bitmap2hostlist(ptr noundef %24) #8
  %26 = getelementptr inbounds nuw i8, ptr %1, i64 48
  %27 = load i16, ptr %26, align 8
  %28 = call fastcc i32 @_split_hostlist_treewidth(ptr noundef %25, ptr noundef nonnull %4, ptr noundef nonnull %3, i16 noundef zeroext %27)
  tail call void @slurm_hostlist_destroy(ptr noundef %25) #8
  %29 = getelementptr inbounds nuw i8, ptr %1, i64 40
  %30 = load ptr, ptr %29, align 8
  %31 = load ptr, ptr %30, align 8
  %32 = tail call i64 @slurm_xsize(ptr noundef %31) #8
  %33 = load i32, ptr %3, align 4
  %34 = sext i32 %33 to i64
  %35 = shl nsw i64 %34, 3
  %36 = add i64 %35, %32
  %37 = load ptr, ptr %29, align 8
  %38 = tail call ptr @slurm_xrecalloc(ptr noundef %37, i64 noundef 1, i64 noundef %36, i1 noundef zeroext true, i1 noundef zeroext false, ptr noundef nonnull @.str.5, i32 noundef 107, ptr noundef nonnull @__func__._part_split_hostlist) #8
  %39 = icmp sgt i32 %33, 0
  br i1 %39, label %.lr.ph.preheader, label %._crit_edge

.lr.ph.preheader:                                 ; preds = %17
  %wide.trip.count = zext nneg i32 %33 to i64
  %.pre43 = load ptr, ptr %4, align 8
  br label %.lr.ph

._crit_edge:                                      ; preds = %.lr.ph, %17
  call void @slurm_xfree(ptr noundef nonnull %4) #8
  %40 = load ptr, ptr %1, align 8
  %41 = load i32, ptr %40, align 4
  %42 = add nsw i32 %41, %33
  store i32 %42, ptr %40, align 4
  %43 = getelementptr inbounds nuw i8, ptr %1, i64 8
  %44 = load i32, ptr %43, align 8
  %. = call i32 @llvm.smax.i32(i32 %44, i32 %28)
  store i32 %., ptr %43, align 8
  %45 = getelementptr inbounds nuw i8, ptr %1, i64 24
  %46 = load i32, ptr %45, align 8
  %47 = sub nsw i32 %46, %23
  store i32 %47, ptr %45, align 8
  %48 = icmp eq i32 %46, %23
  %spec.select = sext i1 %48 to i32
  br label %59

.lr.ph:                                           ; preds = %.lr.ph.preheader, %.lr.ph
  %indvars.iv = phi i64 [ 0, %.lr.ph.preheader ], [ %indvars.iv.next, %.lr.ph ]
  %49 = getelementptr inbounds nuw ptr, ptr %.pre43, i64 %indvars.iv
  %50 = load ptr, ptr %49, align 8
  %51 = load ptr, ptr %29, align 8
  %52 = load ptr, ptr %51, align 8
  %53 = load ptr, ptr %1, align 8
  %54 = load i32, ptr %53, align 4
  %55 = trunc nuw nsw i64 %indvars.iv to i32
  %56 = add nsw i32 %54, %55
  %57 = sext i32 %56 to i64
  %58 = getelementptr inbounds ptr, ptr %52, i64 %57
  store ptr %50, ptr %58, align 8
  %indvars.iv.next = add nuw nsw i64 %indvars.iv, 1
  %exitcond.not = icmp eq i64 %indvars.iv.next, %wide.trip.count
  br i1 %exitcond.not, label %._crit_edge, label %.lr.ph, !llvm.loop !23

59:                                               ; preds = %._crit_edge, %2
  %.036 = phi i32 [ 0, %2 ], [ %spec.select, %._crit_edge ]
  call void @llvm.lifetime.end.p0(i64 8, ptr nonnull %4) #8
  call void @llvm.lifetime.end.p0(i64 4, ptr nonnull %3) #8
  ret i32 %.036
}